; Function Attrs: mustprogress uwtable
define void @_ZN5ImGui23InputTextDeactivateHookEj(i32 noundef %0) local_unnamed_addr #6 {
  %2 = load ptr, ptr @GImGui, align 8, !tbaa !3
  %3 = icmp eq i32 %0, 0
  br i1 %3, label %51, label %4

4:                                                ; preds = %1
  %5 = getelementptr inbounds nuw i8, ptr %2, i64 9060
  %6 = load i32, ptr %5, align 4, !tbaa !397
  %.not = icmp eq i32 %6, %0
  br i1 %.not, label %7, label %51

7:                                                ; preds = %4
  %8 = getelementptr inbounds nuw i8, ptr %2, i64 9160
  store i32 %0, ptr %8, align 8, !tbaa !464
  %9 = getelementptr inbounds nuw i8, ptr %2, i64 9056
  %10 = load i32, ptr %9, align 8, !tbaa !425
  %11 = and i32 %10, 512
  %.not13 = icmp eq i32 %11, 0
  %12 = getelementptr inbounds nuw i8, ptr %2, i64 9168
  br i1 %.not13, label %26, label %13

13:                                               ; preds = %7
  %14 = getelementptr inbounds nuw i8, ptr %2, i64 9172
  %15 = load i32, ptr %14, align 4, !tbaa !388
  %16 = icmp slt i32 %15, 0
  br i1 %16, label %17, label %_ZN8ImVectorIcE6resizeEi.exit

17:                                               ; preds = %13
  %18 = tail call noundef ptr @_ZN5ImGui8MemAllocEm(i64 noundef 0)
  %19 = getelementptr inbounds nuw i8, ptr %2, i64 9176
  %20 = load ptr, ptr %19, align 8, !tbaa !389
  %.not6.i.i = icmp eq ptr %20, null
  br i1 %.not6.i.i, label %25, label %21

21:                                               ; preds = %17
  %22 = load i32, ptr %12, align 8, !tbaa !390
  %23 = sext i32 %22 to i64
  tail call void @llvm.memcpy.p0.p0.i64(ptr align 1 %18, ptr nonnull align 1 %20, i64 %23, i1 false)
  %24 = load ptr, ptr %19, align 8, !tbaa !389
  tail call void @_ZN5ImGui7MemFreeEPv(ptr noundef %24)
  br label %25

25:                                               ; preds = %21, %17
  store ptr %18, ptr %19, align 8, !tbaa !389
  store i32 0, ptr %14, align 4, !tbaa !388
  br label %_ZN8ImVectorIcE6resizeEi.exit

_ZN8ImVectorIcE6resizeEi.exit:                    ; preds = %13, %25
  store i32 0, ptr %12, align 8, !tbaa !390
  br label %51

26:                                               ; preds = %7
  %27 = getelementptr inbounds nuw i8, ptr %2, i64 9064
  %28 = load i32, ptr %27, align 8, !tbaa !384
  %29 = add nsw i32 %28, 1
  %30 = getelementptr inbounds nuw i8, ptr %2, i64 9172
  %31 = load i32, ptr %30, align 4, !tbaa !388
  %.not16 = icmp slt i32 %28, %31
  br i1 %.not16, label %._ZN8ImVectorIcE6resizeEi.exit15_crit_edge, label %32

._ZN8ImVectorIcE6resizeEi.exit15_crit_edge:       ; preds = %26
  %.phi.trans.insert = getelementptr inbounds nuw i8, ptr %2, i64 9176
  %.pre = load ptr, ptr %.phi.trans.insert, align 8, !tbaa !465
  br label %_ZN8ImVectorIcE6resizeEi.exit15

32:                                               ; preds = %26
  %.not.i.i = icmp eq i32 %31, 0
  br i1 %.not.i.i, label %_ZNK8ImVectorIcE14_grow_capacityEi.exit.i, label %33

33:                                               ; preds = %32
  %34 = sdiv i32 %31, 2
  %35 = add nsw i32 %34, %31
  br label %_ZNK8ImVectorIcE14_grow_capacityEi.exit.i

_ZNK8ImVectorIcE14_grow_capacityEi.exit.i:        ; preds = %33, %32
  %36 = phi i32 [ %35, %33 ], [ 8, %32 ]
  %37 = tail call noundef i32 @llvm.smax.i32(i32 %36, i32 %29)
  %38 = sext i32 %37 to i64
  %39 = tail call noundef ptr @_ZN5ImGui8MemAllocEm(i64 noundef %38)
  %40 = getelementptr inbounds nuw i8, ptr %2, i64 9176
  %41 = load ptr, ptr %40, align 8, !tbaa !389
  %.not6.i.i14 = icmp eq ptr %41, null
  br i1 %.not6.i.i14, label %46, label %42

42:                                               ; preds = %_ZNK8ImVectorIcE14_grow_capacityEi.exit.i
  %43 = load i32, ptr %12, align 8, !tbaa !390
  %44 = sext i32 %43 to i64
  tail call void @llvm.memcpy.p0.p0.i64(ptr align 1 %39, ptr nonnull align 1 %41, i64 %44, i1 false)
  %45 = load ptr, ptr %40, align 8, !tbaa !389
  tail call void @_ZN5ImGui7MemFreeEPv(ptr noundef %45)
  br label %46

46:                                               ; preds = %42, %_ZNK8ImVectorIcE14_grow_capacityEi.exit.i
  store ptr %39, ptr %40, align 8, !tbaa !389
  store i32 %37, ptr %30, align 4, !tbaa !388
  %.pre17 = load i32, ptr %27, align 8, !tbaa !384
  %.pre18 = add nsw i32 %.pre17, 1
  br label %_ZN8ImVectorIcE6resizeEi.exit15

_ZN8ImVectorIcE6resizeEi.exit15:                  ; preds = %._ZN8ImVectorIcE6resizeEi.exit15_crit_edge, %46
  %.pre-phi = phi i32 [ %29, %._ZN8ImVectorIcE6resizeEi.exit15_crit_edge ], [ %.pre18, %46 ]
  %47 = phi ptr [ %.pre, %._ZN8ImVectorIcE6resizeEi.exit15_crit_edge ], [ %39, %46 ]
  store i32 %29, ptr %12, align 8, !tbaa !390
  %48 = getelementptr inbounds nuw i8, ptr %2, i64 9088
  %49 = load ptr, ptr %48, align 8, !tbaa !383
  %50 = sext i32 %.pre-phi to i64
  tail call void @llvm.memcpy.p0.p0.i64(ptr align 1 %47, ptr align 1 %49, i64 %50, i1 false)
  br label %51

51:                                               ; preds = %_ZN8ImVectorIcE6resizeEi.exit, %_ZN8ImVectorIcE6resizeEi.exit15, %1, %4
  ret void
}